target datalayout = "e-m:e-p270:32:32-p271:32:32-p272:64:64-i64:64-i128:128-f80:128-n8:16:32:64-S128"
target triple = "x86_64-pc-linux-gnu"

%"class.absl::crc32c_t" = type { i32 }
%"class.std::basic_string_view" = type { i64, ptr }

@_ZZN4absl12_GLOBAL__N_19CrcEngineEvE6engine = internal global ptr null, align 8
@_ZGVZN4absl12_GLOBAL__N_19CrcEngineEvE6engine = internal global i64 0, align 8

; Function Attrs: mustprogress nounwind uwtable
define linkonce_odr dso_local void @_ZN4absl8crc32c_tC2Ej(ptr noundef nonnull align 4 dereferenceable(4) %0, i32 noundef %1) unnamed_addr #2 comdat align 2 {
  %3 = alloca ptr, align 8
  %4 = alloca i32, align 4
  store ptr %0, ptr %3, align 8, !tbaa !12
  store i32 %1, ptr %4, align 4, !tbaa !8
  %5 = load ptr, ptr %3, align 8
  %6 = getelementptr inbounds nuw %"class.absl::crc32c_t", ptr %5, i32 0, i32 0
  %7 = load i32, ptr %4, align 4, !tbaa !8
  store i32 %7, ptr %6, align 4, !tbaa !15
  ret void
}

; Function Attrs: mustprogress nounwind uwtable
define linkonce_odr dso_local noundef i64 @_ZNKSt17basic_string_viewIcSt11char_traitsIcEE4sizeEv(ptr noundef nonnull align 8 dereferenceable(16) %0) #2 comdat align 2 {
  %2 = alloca ptr, align 8
  store ptr %0, ptr %2, align 8, !tbaa !20
  %3 = load ptr, ptr %2, align 8
  %4 = getelementptr inbounds nuw %"class.std::basic_string_view", ptr %3, i32 0, i32 0
  %5 = load i64, ptr %4, align 8, !tbaa !25
  ret i64 %5
}

; Function Attrs: mustprogress nounwind uwtable
define linkonce_odr dso_local noundef ptr @_ZNKSt17basic_string_viewIcSt11char_traitsIcEE4dataEv(ptr noundef nonnull align 8 dereferenceable(16) %0) #2 comdat align 2 {
  %2 = alloca ptr, align 8
  store ptr %0, ptr %2, align 8, !tbaa !20
  %3 = load ptr, ptr %2, align 8
  %4 = getelementptr inbounds nuw %"class.std::basic_string_view", ptr %3, i32 0, i32 1
  %5 = load ptr, ptr %4, align 8, !tbaa !22
  ret ptr %5
}

; Function Attrs: mustprogress uwtable
define internal noundef ptr @_ZN4absl12_GLOBAL__N_19CrcEngineEv() #0 personality ptr @__gxx_personality_v0 {
  %1 = alloca ptr, align 8
  %2 = alloca i32, align 4
  %3 = load atomic i8, ptr @_ZGVZN4absl12_GLOBAL__N_19CrcEngineEvE6engine acquire, align 8
  %4 = icmp eq i8 %3, 0
  br i1 %4, label %5, label %11, !prof !17

5:                                                ; preds = %0
  %6 = call i32 @__cxa_guard_acquire(ptr @_ZGVZN4absl12_GLOBAL__N_19CrcEngineEvE6engine) #5
  %7 = icmp ne i32 %6, 0
  br i1 %7, label %8, label %11

8:                                                ; preds = %5
  %9 = invoke noundef ptr @_ZN4absl12crc_internal3CRC6Crc32cEv()
          to label %10 unwind label %13

10:                                               ; preds = %8
  store ptr %9, ptr @_ZZN4absl12_GLOBAL__N_19CrcEngineEvE6engine, align 8, !tbaa !18
  call void @__cxa_guard_release(ptr @_ZGVZN4absl12_GLOBAL__N_19CrcEngineEvE6engine) #5
  br label %11

11:                                               ; preds = %10, %5, %0
  %12 = load ptr, ptr @_ZZN4absl12_GLOBAL__N_19CrcEngineEvE6engine, align 8, !tbaa !18
  ret ptr %12

13:                                               ; preds = %8
  %14 = landingpad { ptr, i32 }
          cleanup
  %15 = extractvalue { ptr, i32 } %14, 0
  store ptr %15, ptr %1, align 8
  %16 = extractvalue { ptr, i32 } %14, 1
  store i32 %16, ptr %2, align 4
  call void @__cxa_guard_abort(ptr @_ZGVZN4absl12_GLOBAL__N_19CrcEngineEvE6engine) #5
  br label %17

17:                                               ; preds = %13
  %18 = load ptr, ptr %1, align 8
  %19 = load i32, ptr %2, align 4
  %20 = insertvalue { ptr, i32 } poison, ptr %18, 0
  %21 = insertvalue { ptr, i32 } %20, i32 %19, 1
  resume { ptr, i32 } %21
}

; Function Attrs: mustprogress nounwind uwtable
define linkonce_odr dso_local noundef i32 @_ZNK4absl8crc32c_tcvjEv(ptr noundef nonnull align 4 dereferenceable(4) %0) #2 comdat align 2 {
  %2 = alloca ptr, align 8
  store ptr %0, ptr %2, align 8, !tbaa !12
  %3 = load ptr, ptr %2, align 8
  %4 = getelementptr inbounds nuw %"class.absl::crc32c_t", ptr %3, i32 0, i32 0
  %5 = load i32, ptr %4, align 4, !tbaa !15
  ret i32 %5
}

; Function Attrs: mustprogress uwtable
define dso_local i32 @_ZN4absl12crc_internal20ExtendCrc32cInternalENS_8crc32c_tESt17basic_string_viewIcSt11char_traitsIcEE(i32 %0, i64 %1, ptr %2) #0 {
  %4 = alloca %"class.absl::crc32c_t", align 4
  %5 = alloca %"class.absl::crc32c_t", align 4
  %6 = alloca %"class.std::basic_string_view", align 8
  %7 = alloca i32, align 4
  %8 = getelementptr inbounds nuw %"class.absl::crc32c_t", ptr %5, i32 0, i32 0
  store i32 %0, ptr %8, align 4
  %9 = getelementptr inbounds nuw { i64, ptr }, ptr %6, i32 0, i32 0
  store i64 %1, ptr %9, align 8
  %10 = getelementptr inbounds nuw { i64, ptr }, ptr %6, i32 0, i32 1
  store ptr %2, ptr %10, align 8
  call void @llvm.lifetime.start.p0(i64 4, ptr %7) #5
  %11 = call noundef i32 @_ZNK4absl8crc32c_tcvjEv(ptr noundef nonnull align 4 dereferenceable(4) %5)
  %12 = xor i32 %11, -1
  store i32 %12, ptr %7, align 4, !tbaa !8
  %13 = call noundef ptr @_ZN4absl12_GLOBAL__N_19CrcEngineEv()
  %14 = call noundef ptr @_ZNKSt17basic_string_viewIcSt11char_traitsIcEE4dataEv(ptr noundef nonnull align 8 dereferenceable(16) %6) #5
  %15 = call noundef i64 @_ZNKSt17basic_string_viewIcSt11char_traitsIcEE4sizeEv(ptr noundef nonnull align 8 dereferenceable(16) %6) #5
  %16 = load ptr, ptr %13, align 8, !tbaa !10
  %17 = getelementptr inbounds ptr, ptr %16, i64 2
  %18 = load ptr, ptr %17, align 8
  call void %18(ptr noundef nonnull align 8 dereferenceable(8) %13, ptr noundef %7, ptr noundef %14, i64 noundef %15)
  %19 = load i32, ptr %7, align 4, !tbaa !8
  %20 = xor i32 %19, -1
  call void @_ZN4absl8crc32c_tC2Ej(ptr noundef nonnull align 4 dereferenceable(4) %4, i32 noundef %20)
  call void @llvm.lifetime.end.p0(i64 4, ptr %7) #5
  %21 = getelementptr inbounds nuw %"class.absl::crc32c_t", ptr %4, i32 0, i32 0
  %22 = load i32, ptr %21, align 4
  ret i32 %22
}